Certificate:
    Data:
        Version: 3 (0x2)
        Serial Number: 1 (0x1)
        Signature Algorithm: sha256WithRSAEncryption
        Issuer: CN=devcert
        Validity
            Not Before: May  4 18:01:43 2020 GMT
            Not After : Aug  7 18:01:43 2022 GMT
        Subject: CN=localhost
        Subject Public Key Info:
            Public Key Algorithm: rsaEncryption
                RSA Public-Key: (2048 bit)
                Modulus:
                    00:a9:d6:21:12:92:b4:c9:f5:9f:33:1a:55:0c:d2:
                    b1:08:1b:04:bd:ef:20:5f:ca:b3:89:98:82:b2:b3:
                    52:4f:a2:45:14:0f:54:1c:ac:45:5a:29:4b:c2:4c:
                    83:06:15:78:ba:8d:fb:4c:eb:18:5f:be:8b:32:d9:
                    6b:5b:ea:bd:ef:96:f5:b9:52:a9:a4:38:7c:03:fb:
                    fd:17:03:a6:63:24:0f:c3:2a:c1:d9:8f:65:02:e8:
                    99:43:09:90:6b:3b:6e:a7:eb:fa:bb:68:10:05:ff:
                    fe:d4:45:e1:43:39:42:08:b8:6f:bc:58:00:11:92:
                    ae:a1:0e:dd:55:5b:21:31:cc:aa:b7:55:61:d3:5c:
                    1f:f6:57:84:7c:98:32:17:3a:b3:d7:fa:dc:97:c0:
                    fe:8e:d1:3d:8a:66:b0:4c:bc:00:33:c2:68:39:da:
                    21:da:bb:ea:c1:d1:f3:5c:96:bd:c3:09:55:47:20:
                    32:77:b4:4b:af:cf:68:5b:ee:0f:05:47:e3:6f:bb:
                    dc:b2:51:c4:63:42:86:68:e9:d2:97:da:2b:fd:96:
                    c4:86:3c:39:04:17:70:0c:e6:53:25:71:a8:59:7a:
                    99:6f:ae:91:70:09:c8:29:6e:ff:56:28:8e:59:2a:
                    46:ae:07:76:0e:90:28:ba:9f:ec:ae:79:7d:88:eb:
                    ab:cf
                Exponent: 65537 (0x10001)
        X509v3 extensions:
            X509v3 Basic Constraints: critical
                CA:FALSE
            X509v3 Subject Key Identifier: 
                8F:3B:89:98:24:B2:EB:22:8B:0D:EE:E1:02:C1:02:B2:11:87:28:91
            X509v3 Authority Key Identifier: 
                keyid:26:A2:7E:8E:D3:EA:4E:A3:1E:38:8A:CB:43:0C:8C:D1:5A:29:DE:12
                DirName:/CN=devcert
                serial:5F:59:CB:2B:B7:DC:30:67:27:11:81:00:23:40:BE:CF:D2:F5:DE:91

            X509v3 Key Usage: critical
                Digital Signature, Key Encipherment
            X509v3 Extended Key Usage: 
                TLS Web Server Authentication
            X509v3 Subject Alternative Name: 
                DNS:localhost, DNS:*.localhost
    Signature Algorithm: sha256WithRSAEncryption
         2a:d5:0a:5c:69:d5:16:5f:58:a6:3c:2d:73:88:49:88:88:78:
         4e:69:ce:30:8d:34:72:ea:25:24:b6:6d:08:9f:6a:99:ee:6d:
         fe:f4:81:bf:90:4c:5d:da:81:c1:35:b3:b2:0b:1c:17:4f:3e:
         e6:42:00:08:5a:15:db:2e:f2:5e:38:bf:42:9d:f5:71:d4:97:
         a6:d5:cc:f4:93:0e:61:8e:f9:97:03:b8:a5:22:86:17:3d:4c:
         53:a6:14:ee:4b:cd:41:d7:98:99:92:99:e6:5b:bc:c4:9a:52:
         cb:57:96:23:39:73:11:41:3b:ca:8e:78:95:31:0f:3c:27:53:
         23:ef:c9:e4:1f:b6:bb:17:4d:47:88:50:e5:7a:f2:eb:15:1d:
         72:15:f1:6d:9c:2f:dc:1e:06:9a:37:bd:93:f1:a2:54:64:a9:
         11:8a:f3:a4:69:18:e9:7b:69:bf:7d:a3:b1:56:6f:cc:ab:27:
         79:db:24:2f:26:32:20:a5:7b:3d:5b:76:eb:78:0c:ee:90:92:
         0f:26:76:b4:77:3c:b8:c3:63:ec:a4:96:78:9e:05:25:4c:ae:
         6a:91:64:25:a8:ae:c6:03:6d:ef:9f:00:74:75:72:e5:80:5d:
         9c:c7:7d:96:42:7d:6d:49:c2:58:11:88:3c:91:aa:bb:b8:75:
         56:88:61:7e
-----BEGIN CERTIFICATE-----
MIIDaTCCAlGgAwIBAgIBATANBgkqhkiG9w0BAQsFADASMRAwDgYDVQQDDAdkZXZj
ZXJ0MB4XDTIwMDUwNDE4MDE0M1oXDTIyMDgwNzE4MDE0M1owFDESMBAGA1UEAwwJ
bG9jYWxob3N0MIIBIjANBgkqhkiG9w0BAQEFAAOCAQ8AMIIBCgKCAQEAqdYhEpK0
yfWfMxpVDNKxCBsEve8gX8qziZiCsrNST6JFFA9UHKxFWilLwkyDBhV4uo37TOsY
X76LMtlrW+q975b1uVKppDh8A/v9FwOmYyQPwyrB2Y9lAuiZQwmQaztup+v6u2gQ
Bf/+1EXhQzlCCLhvvFgAEZKuoQ7dVVshMcyqt1Vh01wf9leEfJgyFzqz1/rcl8D+
jtE9imawTLwAM8JoOdoh2rvqwdHzXJa9wwlVRyAyd7RLr89oW+4PBUfjb7vcslHE
Y0KGaOnSl9or/ZbEhjw5BBdwDOZTJXGoWXqZb66RcAnIKW7/ViiOWSpGrgd2DpAo
up/srnl9iOurzwIDAQABo4HHMIHEMAwGA1UdEwEB/wQCMAAwHQYDVR0OBBYEFI87
iZgksusiiw3u4QLBArIRhyiRME0GA1UdIwRGMESAFCaifo7T6k6jHjiKy0MMjNFa
Kd4SoRakFDASMRAwDgYDVQQDDAdkZXZjZXJ0ghRfWcsrt9wwZycRgQAjQL7P0vXe
kTAOBgNVHQ8BAf8EBAMCBaAwEwYDVR0lBAwwCgYIKwYBBQUHAwEwIQYDVR0RBBow
GIIJbG9jYWxob3N0ggsqLmxvY2FsaG9zdDANBgkqhkiG9w0BAQsFAAOCAQEAKtUK
XGnVFl9Ypjwtc4hJiIh4TmnOMI00cuolJLZtCJ9qme5t/vSBv5BMXdqBwTWzsgsc
F08+5kIACFoV2y7yXji/Qp31cdSXptXM9JMOYY75lwO4pSKGFz1MU6YU7kvNQdeY
mZKZ5lu8xJpSy1eWIzlzEUE7yo54lTEPPCdTI+/J5B+2uxdNR4hQ5Xry6xUdchXx
bZwv3B4Gmje9k/GiVGSpEYrzpGkY6Xtpv32jsVZvzKsnedskLyYyIKV7PVt263gM
7pCSDyZ2tHc8uMNj7KSWeJ4FJUyuapFkJaiuxgNt758AdHVy5YBdnMd9lkJ9bUnC
WBGIPJGqu7h1Vohhfg==
-----END CERTIFICATE-----
